; Function Attrs: mustprogress uwtable
define noundef signext i8 @_ZN16IcuTestErrorCode19expectErrorAndResetE10UErrorCodePKcz(ptr noundef nonnull align 8 dereferenceable(96) %this, i32 noundef %expectedError, ptr nocapture noundef readonly %fmt, ...) local_unnamed_addr #1 align 2 personality ptr @__gxx_personality_v0 {
entry:
  %buffer = alloca [4000 x i8], align 16
  %ap = alloca [1 x %struct.__va_list_tag], align 16
  %ref.tmp = alloca %"class.icu_75::UnicodeString", align 8
  %ref.tmp6 = alloca %"class.icu_75::UnicodeString", align 8
  %ref.tmp7 = alloca %"class.icu_75::UnicodeString", align 8
  %errorCode.i = getelementptr inbounds i8, ptr %this, i64 8
  %0 = load i32, ptr %errorCode.i, align 8
  %cmp.not = icmp eq i32 %0, %expectedError
  br i1 %cmp.not, label %if.end, label %if.then

if.then:                                          ; preds = %entry
  call void @llvm.va_start(ptr nonnull %ap)
  %call4 = call i32 @vsnprintf(ptr noundef nonnull %buffer, i64 noundef 4000, ptr noundef %fmt, ptr noundef nonnull %ap) #20
  call void @llvm.va_end(ptr nonnull %ap)
  call void @_ZN6icu_7513UnicodeStringC1EPKDs(ptr noundef nonnull align 8 dereferenceable(64) %ref.tmp6, ptr noundef nonnull @.str.3)
  %call8 = invoke ptr @u_errorName_75(i32 noundef %expectedError)
          to label %invoke.cont unwind label %lpad

invoke.cont:                                      ; preds = %if.then
  invoke void @_ZN6icu_7513UnicodeStringC1EPKc(ptr noundef nonnull align 8 dereferenceable(64) %ref.tmp7, ptr noundef %call8)
          to label %invoke.cont9 unwind label %lpad

invoke.cont9:                                     ; preds = %invoke.cont
  invoke void @_ZN6icu_75plERKNS_13UnicodeStringES2_(ptr nonnull sret(%"class.icu_75::UnicodeString") align 8 %ref.tmp, ptr noundef nonnull align 8 dereferenceable(64) %ref.tmp6, ptr noundef nonnull align 8 dereferenceable(64) %ref.tmp7)
          to label %invoke.cont11 unwind label %lpad10

invoke.cont11:                                    ; preds = %invoke.cont9
  invoke void @_ZNK16IcuTestErrorCode6errlogEaRKN6icu_7513UnicodeStringEPKc(ptr noundef nonnull align 8 dereferenceable(96) %this, i8 noundef signext 0, ptr noundef nonnull align 8 dereferenceable(64) %ref.tmp, ptr noundef nonnull %buffer)
          to label %invoke.cont14 unwind label %lpad13

invoke.cont14:                                    ; preds = %invoke.cont11
  call void @_ZN6icu_7513UnicodeStringD1Ev(ptr noundef nonnull align 8 dereferenceable(64) %ref.tmp) #20
  call void @_ZN6icu_7513UnicodeStringD1Ev(ptr noundef nonnull align 8 dereferenceable(64) %ref.tmp7) #20
  call void @_ZN6icu_7513UnicodeStringD1Ev(ptr noundef nonnull align 8 dereferenceable(64) %ref.tmp6) #20
  %.pre = load i32, ptr %errorCode.i, align 8
  br label %if.end

lpad:                                             ; preds = %invoke.cont, %if.then
  %1 = landingpad { ptr, i32 }
          cleanup
  br label %ehcleanup15

lpad10:                                           ; preds = %invoke.cont9
  %2 = landingpad { ptr, i32 }
          cleanup
  br label %ehcleanup

lpad13:                                           ; preds = %invoke.cont11
  %3 = landingpad { ptr, i32 }
          cleanup
  call void @_ZN6icu_7513UnicodeStringD1Ev(ptr noundef nonnull align 8 dereferenceable(64) %ref.tmp) #20
  br label %ehcleanup

ehcleanup:                                        ; preds = %lpad13, %lpad10
  %.pn = phi { ptr, i32 } [ %3, %lpad13 ], [ %2, %lpad10 ]
  call void @_ZN6icu_7513UnicodeStringD1Ev(ptr noundef nonnull align 8 dereferenceable(64) %ref.tmp7) #20
  br label %ehcleanup15

ehcleanup15:                                      ; preds = %ehcleanup, %lpad
  %.pn.pn = phi { ptr, i32 } [ %.pn, %ehcleanup ], [ %1, %lpad ]
  call void @_ZN6icu_7513UnicodeStringD1Ev(ptr noundef nonnull align 8 dereferenceable(64) %ref.tmp6) #20
  resume { ptr, i32 } %.pn.pn

if.end:                                           ; preds = %invoke.cont14, %entry
  %4 = phi i32 [ %.pre, %invoke.cont14 ], [ %expectedError, %entry ]
  %cmp.i.i = icmp sgt i32 %4, 0
  %conv.i.i = zext i1 %cmp.i.i to i8
  %call18 = call noundef i32 @_ZN6icu_759ErrorCode5resetEv(ptr noundef nonnull align 8 dereferenceable(12) %this)
  ret i8 %conv.i.i
}